; Function Attrs: nounwind sspstrong uwtable
define dso_local ptr @lock_user_string(i64 noundef %guest_addr) local_unnamed_addr #0 {
entry:
  br label %for.cond.i

for.cond.i:                                       ; preds = %if.end8.i, %entry
  %guest_addr.0.i = phi i64 [ %guest_addr, %entry ], [ %add.i, %if.end8.i ]
  %and.i = and i64 %guest_addr.0.i, 4095
  %sub.neg16.i = or i64 %guest_addr.0.i, -4096
  %sub.i = sub nuw nsw i64 4096, %and.i
  %sub.i.i.i.i = xor i64 %and.i, 4095
  %0 = load i64, ptr @reserved_va, align 8
  %tobool.not.i5.i.i.i = icmp eq i64 %0, 0
  %..i.i.i.i = select i1 %tobool.not.i5.i.i.i, i64 -1, i64 %0
  %cmp.not.i.i.i.i = icmp ule i64 %sub.i.i.i.i, %..i.i.i.i
  %reass.sub.i.i = add nsw i64 %sub.neg16.i, 1
  %add.i.i.i.i = add i64 %reass.sub.i.i, %..i.i.i.i
  %cmp7.i.i.i.i = icmp ule i64 %guest_addr.0.i, %add.i.i.i.i
  %1 = and i1 %cmp.not.i.i.i.i, %cmp7.i.i.i.i
  br i1 %1, label %access_ok_untagged.exit.i.i, label %return

access_ok_untagged.exit.i.i:                      ; preds = %for.cond.i
  %call2.i.i.i = tail call zeroext i1 @page_check_range(i64 noundef %guest_addr.0.i, i64 noundef %sub.i, i32 noundef 1) #3
  br i1 %call2.i.i.i, label %lock_user.exit.i, label %return

lock_user.exit.i:                                 ; preds = %access_ok_untagged.exit.i.i
  %2 = load i64, ptr @guest_base, align 8
  %add.i.i.i = add i64 %2, %guest_addr.0.i
  %tobool.not.i = icmp eq i64 %add.i.i.i, 0
  br i1 %tobool.not.i, label %return, label %if.end.i

if.end.i:                                         ; preds = %lock_user.exit.i
  %3 = inttoptr i64 %add.i.i.i to ptr
  %conv.i = trunc nuw nsw i64 %sub.i to i32
  %call1.i = tail call i32 @qemu_strnlen(ptr noundef nonnull %3, i32 noundef %conv.i) #3
  %conv2.i = sext i32 %call1.i to i64
  %add.i = add i64 %guest_addr.0.i, %conv2.i
  %cmp.i = icmp eq i64 %add.i, 0
  br i1 %cmp.i, label %return, label %lor.lhs.false.i

lor.lhs.false.i:                                  ; preds = %if.end.i
  %sub4.i = sub i64 %add.i, %guest_addr
  %cmp5.i = icmp ugt i64 %sub4.i, 2147483647
  br i1 %cmp5.i, label %return, label %if.end8.i

if.end8.i:                                        ; preds = %lor.lhs.false.i
  %cmp9.not.i = icmp eq i64 %sub.i, %conv2.i
  br i1 %cmp9.not.i, label %for.cond.i, label %if.end

if.end:                                           ; preds = %if.end8.i
  %4 = load i64, ptr @reserved_va, align 8
  %tobool.not.i5.i.i = icmp eq i64 %4, 0
  %..i.i.i = select i1 %tobool.not.i5.i.i, i64 -1, i64 %4
  %cmp.not.i.i.i = icmp ule i64 %sub4.i, %..i.i.i
  %add.i.i.i3 = sub i64 %..i.i.i, %sub4.i
  %cmp7.i.i.i = icmp ule i64 %guest_addr, %add.i.i.i3
  %5 = and i1 %cmp.not.i.i.i, %cmp7.i.i.i
  br i1 %5, label %access_ok_untagged.exit.i, label %return

access_ok_untagged.exit.i:                        ; preds = %if.end
  %add = add nuw nsw i64 %sub4.i, 1
  %call2.i.i = tail call zeroext i1 @page_check_range(i64 noundef %guest_addr, i64 noundef %add, i32 noundef 1) #3
  br i1 %call2.i.i, label %if.end.i5, label %return

if.end.i5:                                        ; preds = %access_ok_untagged.exit.i
  %6 = load i64, ptr @guest_base, align 8
  %add.i.i = add i64 %6, %guest_addr
  %7 = inttoptr i64 %add.i.i to ptr
  br label %return

return:                                           ; preds = %for.cond.i, %access_ok_untagged.exit.i.i, %if.end.i, %lor.lhs.false.i, %lock_user.exit.i, %if.end.i5, %access_ok_untagged.exit.i, %if.end
  %retval.0 = phi ptr [ %7, %if.end.i5 ], [ null, %access_ok_untagged.exit.i ], [ null, %if.end ], [ null, %lock_user.exit.i ], [ null, %lor.lhs.false.i ], [ null, %if.end.i ], [ null, %access_ok_untagged.exit.i.i ], [ null, %for.cond.i ]
  ret ptr %retval.0
}